target datalayout = "e-m:e-p270:32:32-p271:32:32-p272:64:64-i64:64-i128:128-f80:128-n8:16:32:64-S128"
target triple = "x86_64-unknown-linux-gnu"

%"class.google::protobuf::io::Tokenizer" = type { %"struct.google::protobuf::io::Tokenizer::Token", %"struct.google::protobuf::io::Tokenizer::Token", ptr, ptr, i8, ptr, i32, i32, i8, i32, i32, ptr, i32, i8, i32, i8, i8, i8, i8 }
%"struct.google::protobuf::io::Tokenizer::Token" = type <{ i32, [4 x i8], %"class.std::__cxx11::basic_string", i32, i32, i32, [4 x i8] }>
%"class.std::__cxx11::basic_string" = type { %"struct.std::__cxx11::basic_string<char>::_Alloc_hider", i64, %union.anon }
%"struct.std::__cxx11::basic_string<char>::_Alloc_hider" = type { ptr }
%union.anon = type { i64, [8 x i8] }

@.str.15 = private unnamed_addr constant [2 x i8] c"/\00", align 1

; Function Attrs: mustprogress uwtable
define linkonce_odr hidden noundef zeroext i1 @_ZN6google8protobuf2io9Tokenizer10TryConsumeEc(ptr noundef nonnull align 8 dereferenceable(192) %this, i8 noundef signext %c) #6 comdat align 2 {
entry:
  %retval = alloca i1, align 1
  %this.addr = alloca ptr, align 8
  %c.addr = alloca i8, align 1
  store ptr %this, ptr %this.addr, align 8
  store i8 %c, ptr %c.addr, align 1
  %this1 = load ptr, ptr %this.addr, align 8
  %current_char_ = getelementptr inbounds %"class.google::protobuf::io::Tokenizer", ptr %this1, i32 0, i32 4
  %0 = load i8, ptr %current_char_, align 8
  %conv = sext i8 %0 to i32
  %1 = load i8, ptr %c.addr, align 1
  %conv2 = sext i8 %1 to i32
  %cmp = icmp eq i32 %conv, %conv2
  br i1 %cmp, label %if.then, label %if.else

if.then:                                          ; preds = %entry
  call void @_ZN6google8protobuf2io9Tokenizer8NextCharEv(ptr noundef nonnull align 8 dereferenceable(192) %this1)
  store i1 true, ptr %retval, align 1
  br label %return

if.else:                                          ; preds = %entry
  store i1 false, ptr %retval, align 1
  br label %return

return:                                           ; preds = %if.else, %if.then
  %2 = load i1, ptr %retval, align 1
  ret i1 %2
}

; Function Attrs: mustprogress uwtable
define noundef i32 @_ZN6google8protobuf2io9Tokenizer22TryConsumeCommentStartEv(ptr noundef nonnull align 8 dereferenceable(192) %this) #6 align 2 {
entry:
  %retval = alloca i32, align 4
  %this.addr = alloca ptr, align 8
  store ptr %this, ptr %this.addr, align 8
  %this1 = load ptr, ptr %this.addr, align 8
  %comment_style_ = getelementptr inbounds %"class.google::protobuf::io::Tokenizer", ptr %this1, i32 0, i32 14
  %0 = load i32, ptr %comment_style_, align 8
  %cmp = icmp eq i32 %0, 0
  br i1 %cmp, label %land.lhs.true, label %if.else13

land.lhs.true:                                    ; preds = %entry
  %call = call noundef zeroext i1 @_ZN6google8protobuf2io9Tokenizer10TryConsumeEc(ptr noundef nonnull align 8 dereferenceable(192) %this1, i8 noundef signext 47)
  br i1 %call, label %if.then, label %if.else13

if.then:                                          ; preds = %land.lhs.true
  %call2 = call noundef zeroext i1 @_ZN6google8protobuf2io9Tokenizer10TryConsumeEc(ptr noundef nonnull align 8 dereferenceable(192) %this1, i8 noundef signext 47)
  br i1 %call2, label %if.then3, label %if.else

if.then3:                                         ; preds = %if.then
  store i32 0, ptr %retval, align 4
  br label %return

if.else:                                          ; preds = %if.then
  %call4 = call noundef zeroext i1 @_ZN6google8protobuf2io9Tokenizer10TryConsumeEc(ptr noundef nonnull align 8 dereferenceable(192) %this1, i8 noundef signext 42)
  br i1 %call4, label %if.then5, label %if.else6

if.then5:                                         ; preds = %if.else
  store i32 1, ptr %retval, align 4
  br label %return

if.else6:                                         ; preds = %if.else
  %current_ = getelementptr inbounds %"class.google::protobuf::io::Tokenizer", ptr %this1, i32 0, i32 0
  %type = getelementptr inbounds %"struct.google::protobuf::io::Tokenizer::Token", ptr %current_, i32 0, i32 0
  store i32 6, ptr %type, align 8
  %current_7 = getelementptr inbounds %"class.google::protobuf::io::Tokenizer", ptr %this1, i32 0, i32 0
  %text = getelementptr inbounds %"struct.google::protobuf::io::Tokenizer::Token", ptr %current_7, i32 0, i32 2
  %call8 = call noundef nonnull align 8 dereferenceable(32) ptr @_ZNSt7__cxx1112basic_stringIcSt11char_traitsIcESaIcEEaSEPKc(ptr noundef nonnull align 8 dereferenceable(32) %text, ptr noundef @.str.15)
  %line_ = getelementptr inbounds %"class.google::protobuf::io::Tokenizer", ptr %this1, i32 0, i32 9
  %1 = load i32, ptr %line_, align 4
  %current_9 = getelementptr inbounds %"class.google::protobuf::io::Tokenizer", ptr %this1, i32 0, i32 0
  %line = getelementptr inbounds %"struct.google::protobuf::io::Tokenizer::Token", ptr %current_9, i32 0, i32 3
  store i32 %1, ptr %line, align 8
  %column_ = getelementptr inbounds %"class.google::protobuf::io::Tokenizer", ptr %this1, i32 0, i32 10
  %2 = load i32, ptr %column_, align 8
  %sub = sub nsw i32 %2, 1
  %current_10 = getelementptr inbounds %"class.google::protobuf::io::Tokenizer", ptr %this1, i32 0, i32 0
  %column = getelementptr inbounds %"struct.google::protobuf::io::Tokenizer::Token", ptr %current_10, i32 0, i32 4
  store i32 %sub, ptr %column, align 4
  %column_11 = getelementptr inbounds %"class.google::protobuf::io::Tokenizer", ptr %this1, i32 0, i32 10
  %3 = load i32, ptr %column_11, align 8
  %current_12 = getelementptr inbounds %"class.google::protobuf::io::Tokenizer", ptr %this1, i32 0, i32 0
  %end_column = getelementptr inbounds %"struct.google::protobuf::io::Tokenizer::Token", ptr %current_12, i32 0, i32 5
  store i32 %3, ptr %end_column, align 8
  store i32 2, ptr %retval, align 4
  br label %return

if.else13:                                        ; preds = %land.lhs.true, %entry
  %comment_style_14 = getelementptr inbounds %"class.google::protobuf::io::Tokenizer", ptr %this1, i32 0, i32 14
  %4 = load i32, ptr %comment_style_14, align 8
  %cmp15 = icmp eq i32 %4, 1
  br i1 %cmp15, label %land.lhs.true16, label %if.else19

land.lhs.true16:                                  ; preds = %if.else13
  %call17 = call noundef zeroext i1 @_ZN6google8protobuf2io9Tokenizer10TryConsumeEc(ptr noundef nonnull align 8 dereferenceable(192) %this1, i8 noundef signext 35)
  br i1 %call17, label %if.then18, label %if.else19

if.then18:                                        ; preds = %land.lhs.true16
  store i32 0, ptr %retval, align 4
  br label %return

if.else19:                                        ; preds = %land.lhs.true16, %if.else13
  store i32 3, ptr %retval, align 4
  br label %return

return:                                           ; preds = %if.else19, %if.then18, %if.else6, %if.then5, %if.then3
  %5 = load i32, ptr %retval, align 4
  ret i32 %5
}