; Function Attrs: mustprogress uwtable
define noundef range(i32 0, 4) i32 @_ZN6google8protobuf2io9Tokenizer22TryConsumeCommentStartEv(ptr noundef nonnull align 8 dereferenceable(192) %this) local_unnamed_addr #6 align 2 {
entry:
  %comment_style_ = getelementptr inbounds nuw i8, ptr %this, i64 184
  %0 = load i32, ptr %comment_style_, align 8
  %cmp = icmp eq i32 %0, 0
  %current_char_.i = getelementptr inbounds nuw i8, ptr %this, i64 128
  %1 = load i8, ptr %current_char_.i, align 8
  br i1 %cmp, label %land.lhs.true, label %if.else13

land.lhs.true:                                    ; preds = %entry
  %cmp.i = icmp eq i8 %1, 47
  br i1 %cmp.i, label %if.then, label %return

if.then:                                          ; preds = %land.lhs.true
  tail call void @_ZN6google8protobuf2io9Tokenizer8NextCharEv(ptr noundef nonnull align 8 dereferenceable(192) %this)
  %2 = load i8, ptr %current_char_.i, align 8
  switch i8 %2, label %if.else6 [
    i8 47, label %_ZN6google8protobuf2io9Tokenizer10TryConsumeEc.exit4.thread
    i8 42, label %_ZN6google8protobuf2io9Tokenizer10TryConsumeEc.exit8.thread
  ]

_ZN6google8protobuf2io9Tokenizer10TryConsumeEc.exit4.thread: ; preds = %if.then
  tail call void @_ZN6google8protobuf2io9Tokenizer8NextCharEv(ptr noundef nonnull align 8 dereferenceable(192) %this)
  br label %return

_ZN6google8protobuf2io9Tokenizer10TryConsumeEc.exit8.thread: ; preds = %if.then
  tail call void @_ZN6google8protobuf2io9Tokenizer8NextCharEv(ptr noundef nonnull align 8 dereferenceable(192) %this)
  br label %return

if.else6:                                         ; preds = %if.then
  store i32 6, ptr %this, align 8
  %text = getelementptr inbounds nuw i8, ptr %this, i64 8
  %call8 = tail call noundef nonnull align 8 dereferenceable(32) ptr @_ZNSt7__cxx1112basic_stringIcSt11char_traitsIcESaIcEEaSEPKc(ptr noundef nonnull align 8 dereferenceable(32) %text, ptr noundef nonnull @.str.15)
  %line_ = getelementptr inbounds nuw i8, ptr %this, i64 156
  %3 = load i32, ptr %line_, align 4
  %line = getelementptr inbounds nuw i8, ptr %this, i64 40
  store i32 %3, ptr %line, align 8
  %column_ = getelementptr inbounds nuw i8, ptr %this, i64 160
  %4 = load i32, ptr %column_, align 8
  %sub = add nsw i32 %4, -1
  %column = getelementptr inbounds nuw i8, ptr %this, i64 44
  store i32 %sub, ptr %column, align 4
  %end_column = getelementptr inbounds nuw i8, ptr %this, i64 48
  store i32 %4, ptr %end_column, align 8
  br label %return

if.else13:                                        ; preds = %entry
  %cmp15 = icmp eq i32 %0, 1
  %cmp.i10 = icmp eq i8 %1, 35
  %or.cond = select i1 %cmp15, i1 %cmp.i10, i1 false
  br i1 %or.cond, label %_ZN6google8protobuf2io9Tokenizer10TryConsumeEc.exit12.thread, label %return

_ZN6google8protobuf2io9Tokenizer10TryConsumeEc.exit12.thread: ; preds = %if.else13
  tail call void @_ZN6google8protobuf2io9Tokenizer8NextCharEv(ptr noundef nonnull align 8 dereferenceable(192) %this)
  br label %return

return:                                           ; preds = %land.lhs.true, %if.else13, %_ZN6google8protobuf2io9Tokenizer10TryConsumeEc.exit12.thread, %_ZN6google8protobuf2io9Tokenizer10TryConsumeEc.exit8.thread, %_ZN6google8protobuf2io9Tokenizer10TryConsumeEc.exit4.thread, %if.else6
  %retval.0 = phi i32 [ 2, %if.else6 ], [ 0, %_ZN6google8protobuf2io9Tokenizer10TryConsumeEc.exit4.thread ], [ 1, %_ZN6google8protobuf2io9Tokenizer10TryConsumeEc.exit8.thread ], [ 0, %_ZN6google8protobuf2io9Tokenizer10TryConsumeEc.exit12.thread ], [ 3, %if.else13 ], [ 3, %land.lhs.true ]
  ret i32 %retval.0
}